; ModuleID = 'source-C-CXX/55/2445.c'
source_filename = "source-C-CXX/55/2445.c"
target datalayout = "e-m:e-p270:32:32-p271:32:32-p272:64:64-i64:64-f80:128-n8:16:32:64-S128"
target triple = "x86_64-pc-linux-gnu"

; Function Attrs: nounwind sspstrong uwtable
define dso_local i32 @main() local_unnamed_addr #0 {
  %1 = alloca [7 x i8], align 1
  %2 = getelementptr inbounds [7 x i8], [7 x i8]* %1, i64 0, i64 0
  call void @llvm.lifetime.start.p0i8(i64 7, i8* nonnull %2) #5
  %3 = call i32 (i8*, ...) bitcast (i32 (...)* @gets to i32 (i8*, ...)*)(i8* nonnull %2) #5
  %4 = call i64 @strlen(i8* noundef nonnull %2) #6
  %5 = icmp eq i64 %4, 0
  br i1 %5, label %17, label %6

6:                                                ; preds = %0, %6
  %7 = phi i64 [ %14, %6 ], [ 1, %0 ]
  %8 = phi i64 [ %15, %6 ], [ %4, %0 ]
  %9 = sub i64 %8, %7
  %10 = getelementptr inbounds [7 x i8], [7 x i8]* %1, i64 0, i64 %9
  %11 = load i8, i8* %10, align 1, !tbaa !5
  %12 = sext i8 %11 to i32
  %13 = call i32 @putchar(i32 %12)
  %14 = add i64 %7, 1
  %15 = call i64 @strlen(i8* noundef nonnull %2) #6
  %16 = icmp ult i64 %15, %14
  br i1 %16, label %17, label %6, !llvm.loop !8

17:                                               ; preds = %6, %0
  %18 = call i32 @putchar(i32 10)
  call void @llvm.lifetime.end.p0i8(i64 7, i8* nonnull %2) #5
  ret i32 0
}

; Function Attrs: argmemonly mustprogress nofree nosync nounwind willreturn
declare void @llvm.lifetime.start.p0i8(i64 immarg, i8* nocapture) #1

declare i32 @gets(...) local_unnamed_addr #2

; Function Attrs: argmemonly mustprogress nofree nounwind readonly willreturn
declare i64 @strlen(i8* nocapture) local_unnamed_addr #3

; Function Attrs: argmemonly mustprogress nofree nosync nounwind willreturn
declare void @llvm.lifetime.end.p0i8(i64 immarg, i8* nocapture) #1

; Function Attrs: nofree nounwind
declare noundef i32 @putchar(i32 noundef) local_unnamed_addr #4


!llvm.module.flags = !{!0, !1, !2, !3}
!llvm.ident = !{!4}

!0 = !{i32 1, !"wchar_size", i32 4}
!1 = !{i32 7, !"PIC Level", i32 2}
!2 = !{i32 7, !"PIE Level", i32 2}
!3 = !{i32 7, !"uwtable", i32 1}
!4 = !{!"clang version 13.0.0"}
!5 = !{!6, !6, i64 0}
!6 = !{!"omnipotent char", !7, i64 0}
!7 = !{!"Simple C/C++ TBAA"}
!8 = distinct !{!8, !9}
!9 = !{!"llvm.loop.mustprogress"}
